; Function Attrs: mustprogress nofree norecurse nosync nounwind willreturn memory(argmem: write) uwtable
define hidden void @_ZN7nanogui7TextBox12set_editableEb(ptr nocapture noundef nonnull writeonly align 8 dereferenceable(440) %0, i1 noundef zeroext %1) local_unnamed_addr #4 align 2 {
  %3 = zext i1 %1 to i8
  %4 = getelementptr inbounds i8, ptr %0, i64 140
  store i8 %3, ptr %4, align 4
  %5 = zext i1 %1 to i32
  %6 = getelementptr inbounds i8, ptr %0, i64 136
  store i32 %5, ptr %6, align 8
  ret void
}